target datalayout = "e-m:e-p270:32:32-p271:32:32-p272:64:64-i64:64-i128:128-f80:128-n8:16:32:64-S128"
target triple = "x86_64-pc-linux-gnu"

%struct.raxNode = type { i32, [0 x i8] }

; Function Attrs: nounwind uwtable
define dso_local void @raxSetData(ptr noundef %0, ptr noundef %1) #0 {
  %3 = alloca ptr, align 8
  %4 = alloca ptr, align 8
  %5 = alloca ptr, align 8
  store ptr %0, ptr %3, align 8, !tbaa !11
  store ptr %1, ptr %4, align 8, !tbaa !16
  %6 = load ptr, ptr %3, align 8, !tbaa !11
  %7 = load i32, ptr %6, align 4
  %8 = and i32 %7, -2
  %9 = or i32 %8, 1
  store i32 %9, ptr %6, align 4
  %10 = load ptr, ptr %4, align 8, !tbaa !16
  %11 = icmp ne ptr %10, null
  br i1 %11, label %12, label %67

12:                                               ; preds = %2
  %13 = load ptr, ptr %3, align 8, !tbaa !11
  %14 = load i32, ptr %13, align 4
  %15 = and i32 %14, -3
  %16 = or i32 %15, 0
  store i32 %16, ptr %13, align 4
  call void @llvm.lifetime.start.p0(i64 8, ptr %5) #13
  %17 = load ptr, ptr %3, align 8, !tbaa !11
  %18 = load ptr, ptr %3, align 8, !tbaa !11
  %19 = load i32, ptr %18, align 4
  %20 = lshr i32 %19, 3
  %21 = zext i32 %20 to i64
  %22 = add i64 4, %21
  %23 = load ptr, ptr %3, align 8, !tbaa !11
  %24 = load i32, ptr %23, align 4
  %25 = lshr i32 %24, 3
  %26 = add nsw i32 %25, 4
  %27 = sext i32 %26 to i64
  %28 = urem i64 %27, 8
  %29 = sub i64 8, %28
  %30 = and i64 %29, 7
  %31 = add i64 %22, %30
  %32 = load ptr, ptr %3, align 8, !tbaa !11
  %33 = load i32, ptr %32, align 4
  %34 = lshr i32 %33, 2
  %35 = and i32 %34, 1
  %36 = icmp ne i32 %35, 0
  br i1 %36, label %37, label %38

37:                                               ; preds = %12
  br label %44

38:                                               ; preds = %12
  %39 = load ptr, ptr %3, align 8, !tbaa !11
  %40 = load i32, ptr %39, align 4
  %41 = lshr i32 %40, 3
  %42 = zext i32 %41 to i64
  %43 = mul i64 8, %42
  br label %44

44:                                               ; preds = %38, %37
  %45 = phi i64 [ 8, %37 ], [ %43, %38 ]
  %46 = add i64 %31, %45
  %47 = load ptr, ptr %3, align 8, !tbaa !11
  %48 = load i32, ptr %47, align 4
  %49 = and i32 %48, 1
  %50 = icmp ne i32 %49, 0
  br i1 %50, label %51, label %58

51:                                               ; preds = %44
  %52 = load ptr, ptr %3, align 8, !tbaa !11
  %53 = load i32, ptr %52, align 4
  %54 = lshr i32 %53, 1
  %55 = and i32 %54, 1
  %56 = icmp ne i32 %55, 0
  %57 = xor i1 %56, true
  br label %58

58:                                               ; preds = %51, %44
  %59 = phi i1 [ false, %44 ], [ %57, %51 ]
  %60 = zext i1 %59 to i32
  %61 = sext i32 %60 to i64
  %62 = mul i64 %61, 8
  %63 = add i64 %46, %62
  %64 = getelementptr inbounds nuw i8, ptr %17, i64 %63
  %65 = getelementptr inbounds i8, ptr %64, i64 -8
  store ptr %65, ptr %5, align 8, !tbaa !16
  %66 = load ptr, ptr %5, align 8, !tbaa !16
  call void @llvm.memcpy.p0.p0.i64(ptr align 8 %66, ptr align 8 %4, i64 8, i1 false)
  call void @llvm.lifetime.end.p0(i64 8, ptr %5) #13
  br label %72

67:                                               ; preds = %2
  %68 = load ptr, ptr %3, align 8, !tbaa !11
  %69 = load i32, ptr %68, align 4
  %70 = and i32 %69, -3
  %71 = or i32 %70, 2
  store i32 %71, ptr %68, align 4
  br label %72

72:                                               ; preds = %67, %58
  ret void
}

; Function Attrs: nounwind uwtable
define dso_local ptr @raxGetData(ptr noundef %0) #0 {
  %2 = alloca ptr, align 8
  %3 = alloca ptr, align 8
  %4 = alloca ptr, align 8
  %5 = alloca ptr, align 8
  store ptr %0, ptr %3, align 8, !tbaa !11
  %6 = load ptr, ptr %3, align 8, !tbaa !11
  %7 = load i32, ptr %6, align 4
  %8 = lshr i32 %7, 1
  %9 = and i32 %8, 1
  %10 = icmp ne i32 %9, 0
  br i1 %10, label %11, label %12

11:                                               ; preds = %1
  store ptr null, ptr %2, align 8
  br label %64

12:                                               ; preds = %1
  call void @llvm.lifetime.start.p0(i64 8, ptr %4) #13
  %13 = load ptr, ptr %3, align 8, !tbaa !11
  %14 = load ptr, ptr %3, align 8, !tbaa !11
  %15 = load i32, ptr %14, align 4
  %16 = lshr i32 %15, 3
  %17 = zext i32 %16 to i64
  %18 = add i64 4, %17
  %19 = load ptr, ptr %3, align 8, !tbaa !11
  %20 = load i32, ptr %19, align 4
  %21 = lshr i32 %20, 3
  %22 = add nsw i32 %21, 4
  %23 = sext i32 %22 to i64
  %24 = urem i64 %23, 8
  %25 = sub i64 8, %24
  %26 = and i64 %25, 7
  %27 = add i64 %18, %26
  %28 = load ptr, ptr %3, align 8, !tbaa !11
  %29 = load i32, ptr %28, align 4
  %30 = lshr i32 %29, 2
  %31 = and i32 %30, 1
  %32 = icmp ne i32 %31, 0
  br i1 %32, label %33, label %34

33:                                               ; preds = %12
  br label %40

34:                                               ; preds = %12
  %35 = load ptr, ptr %3, align 8, !tbaa !11
  %36 = load i32, ptr %35, align 4
  %37 = lshr i32 %36, 3
  %38 = zext i32 %37 to i64
  %39 = mul i64 8, %38
  br label %40

40:                                               ; preds = %34, %33
  %41 = phi i64 [ 8, %33 ], [ %39, %34 ]
  %42 = add i64 %27, %41
  %43 = load ptr, ptr %3, align 8, !tbaa !11
  %44 = load i32, ptr %43, align 4
  %45 = and i32 %44, 1
  %46 = icmp ne i32 %45, 0
  br i1 %46, label %47, label %54

47:                                               ; preds = %40
  %48 = load ptr, ptr %3, align 8, !tbaa !11
  %49 = load i32, ptr %48, align 4
  %50 = lshr i32 %49, 1
  %51 = and i32 %50, 1
  %52 = icmp ne i32 %51, 0
  %53 = xor i1 %52, true
  br label %54

54:                                               ; preds = %47, %40
  %55 = phi i1 [ false, %40 ], [ %53, %47 ]
  %56 = zext i1 %55 to i32
  %57 = sext i32 %56 to i64
  %58 = mul i64 %57, 8
  %59 = add i64 %42, %58
  %60 = getelementptr inbounds nuw i8, ptr %13, i64 %59
  %61 = getelementptr inbounds i8, ptr %60, i64 -8
  store ptr %61, ptr %4, align 8, !tbaa !16
  call void @llvm.lifetime.start.p0(i64 8, ptr %5) #13
  %62 = load ptr, ptr %4, align 8, !tbaa !16
  call void @llvm.memcpy.p0.p0.i64(ptr align 8 %5, ptr align 8 %62, i64 8, i1 false)
  %63 = load ptr, ptr %5, align 8, !tbaa !16
  store ptr %63, ptr %2, align 8
  call void @llvm.lifetime.end.p0(i64 8, ptr %5) #13
  call void @llvm.lifetime.end.p0(i64 8, ptr %4) #13
  br label %64

64:                                               ; preds = %54, %11
  %65 = load ptr, ptr %2, align 8
  ret ptr %65
}

; Function Attrs: nounwind uwtable
define dso_local ptr @raxRemoveChild(ptr noundef %0, ptr noundef %1) #0 {
  %3 = alloca ptr, align 8
  %4 = alloca ptr, align 8
  %5 = alloca ptr, align 8
  %6 = alloca ptr, align 8
  %7 = alloca ptr, align 8
  %8 = alloca ptr, align 8
  %9 = alloca ptr, align 8
  %10 = alloca ptr, align 8
  %11 = alloca i32, align 4
  %12 = alloca i32, align 4
  %13 = alloca i64, align 8
  %14 = alloca i64, align 8
  %15 = alloca ptr, align 8
  store ptr %0, ptr %4, align 8, !tbaa !11
  store ptr %1, ptr %5, align 8, !tbaa !11
  %16 = load ptr, ptr %4, align 8, !tbaa !11
  %17 = load i32, ptr %16, align 4
  %18 = lshr i32 %17, 2
  %19 = and i32 %18, 1
  %20 = icmp ne i32 %19, 0
  br i1 %20, label %21, label %51

21:                                               ; preds = %2
  call void @llvm.lifetime.start.p0(i64 8, ptr %6) #13
  store ptr null, ptr %6, align 8, !tbaa !16
  %22 = load ptr, ptr %4, align 8, !tbaa !11
  %23 = load i32, ptr %22, align 4
  %24 = and i32 %23, 1
  %25 = icmp ne i32 %24, 0
  br i1 %25, label %26, label %29

26:                                               ; preds = %21
  %27 = load ptr, ptr %4, align 8, !tbaa !11
  %28 = call ptr @raxGetData(ptr noundef %27)
  store ptr %28, ptr %6, align 8, !tbaa !16
  br label %29

29:                                               ; preds = %26, %21
  %30 = load ptr, ptr %4, align 8, !tbaa !11
  %31 = load i32, ptr %30, align 4
  %32 = and i32 %31, -3
  %33 = or i32 %32, 0
  store i32 %33, ptr %30, align 4
  %34 = load ptr, ptr %4, align 8, !tbaa !11
  %35 = load i32, ptr %34, align 4
  %36 = and i32 %35, -5
  %37 = or i32 %36, 0
  store i32 %37, ptr %34, align 4
  %38 = load ptr, ptr %4, align 8, !tbaa !11
  %39 = load i32, ptr %38, align 4
  %40 = and i32 %39, 7
  %41 = or i32 %40, 0
  store i32 %41, ptr %38, align 4
  %42 = load ptr, ptr %4, align 8, !tbaa !11
  %43 = load i32, ptr %42, align 4
  %44 = and i32 %43, 1
  %45 = icmp ne i32 %44, 0
  br i1 %45, label %46, label %49

46:                                               ; preds = %29
  %47 = load ptr, ptr %4, align 8, !tbaa !11
  %48 = load ptr, ptr %6, align 8, !tbaa !16
  call void @raxSetData(ptr noundef %47, ptr noundef %48)
  br label %49

49:                                               ; preds = %46, %29
  %50 = load ptr, ptr %4, align 8, !tbaa !11
  store ptr %50, ptr %3, align 8
  call void @llvm.lifetime.end.p0(i64 8, ptr %6) #13
  br label %227

51:                                               ; preds = %2
  call void @llvm.lifetime.start.p0(i64 8, ptr %7) #13
  %52 = load ptr, ptr %4, align 8, !tbaa !11
  %53 = getelementptr inbounds nuw %struct.raxNode, ptr %52, i32 0, i32 1
  %54 = getelementptr inbounds [0 x i8], ptr %53, i64 0, i64 0
  %55 = load ptr, ptr %4, align 8, !tbaa !11
  %56 = load i32, ptr %55, align 4
  %57 = lshr i32 %56, 3
  %58 = sext i32 %57 to i64
  %59 = getelementptr inbounds i8, ptr %54, i64 %58
  %60 = load ptr, ptr %4, align 8, !tbaa !11
  %61 = load i32, ptr %60, align 4
  %62 = lshr i32 %61, 3
  %63 = add nsw i32 %62, 4
  %64 = sext i32 %63 to i64
  %65 = urem i64 %64, 8
  %66 = sub i64 8, %65
  %67 = and i64 %66, 7
  %68 = getelementptr inbounds nuw i8, ptr %59, i64 %67
  store ptr %68, ptr %7, align 8, !tbaa !18
  call void @llvm.lifetime.start.p0(i64 8, ptr %8) #13
  %69 = load ptr, ptr %7, align 8, !tbaa !18
  store ptr %69, ptr %8, align 8, !tbaa !18
  call void @llvm.lifetime.start.p0(i64 8, ptr %9) #13
  %70 = load ptr, ptr %4, align 8, !tbaa !11
  %71 = getelementptr inbounds nuw %struct.raxNode, ptr %70, i32 0, i32 1
  %72 = getelementptr inbounds [0 x i8], ptr %71, i64 0, i64 0
  store ptr %72, ptr %9, align 8, !tbaa !24
  br label %73

73:                                               ; preds = %87, %51
  br label %74

74:                                               ; preds = %73
  call void @llvm.lifetime.start.p0(i64 8, ptr %10) #13
  %75 = load ptr, ptr %8, align 8, !tbaa !18
  call void @llvm.memcpy.p0.p0.i64(ptr align 8 %10, ptr align 8 %75, i64 8, i1 false)
  %76 = load ptr, ptr %10, align 8, !tbaa !11
  %77 = load ptr, ptr %5, align 8, !tbaa !11
  %78 = icmp eq ptr %76, %77
  br i1 %78, label %79, label %80

79:                                               ; preds = %74
  store i32 3, ptr %11, align 4
  br label %85

80:                                               ; preds = %74
  %81 = load ptr, ptr %8, align 8, !tbaa !18
  %82 = getelementptr inbounds nuw ptr, ptr %81, i32 1
  store ptr %82, ptr %8, align 8, !tbaa !18
  %83 = load ptr, ptr %9, align 8, !tbaa !24
  %84 = getelementptr inbounds nuw i8, ptr %83, i32 1
  store ptr %84, ptr %9, align 8, !tbaa !24
  store i32 0, ptr %11, align 4
  br label %85

85:                                               ; preds = %80, %79
  call void @llvm.lifetime.end.p0(i64 8, ptr %10) #13
  %86 = load i32, ptr %11, align 4
  switch i32 %86, label %229 [
    i32 0, label %87
    i32 3, label %88
  ]

87:                                               ; preds = %85
  br label %73

88:                                               ; preds = %85
  call void @llvm.lifetime.start.p0(i64 4, ptr %12) #13
  %89 = load ptr, ptr %4, align 8, !tbaa !11
  %90 = load i32, ptr %89, align 4
  %91 = lshr i32 %90, 3
  %92 = zext i32 %91 to i64
  %93 = load ptr, ptr %9, align 8, !tbaa !24
  %94 = load ptr, ptr %4, align 8, !tbaa !11
  %95 = getelementptr inbounds nuw %struct.raxNode, ptr %94, i32 0, i32 1
  %96 = getelementptr inbounds [0 x i8], ptr %95, i64 0, i64 0
  %97 = ptrtoint ptr %93 to i64
  %98 = ptrtoint ptr %96 to i64
  %99 = sub i64 %97, %98
  %100 = sub nsw i64 %92, %99
  %101 = sub nsw i64 %100, 1
  %102 = trunc i64 %101 to i32
  store i32 %102, ptr %12, align 4, !tbaa !5
  %103 = load ptr, ptr %9, align 8, !tbaa !24
  %104 = load ptr, ptr %9, align 8, !tbaa !24
  %105 = getelementptr inbounds i8, ptr %104, i64 1
  %106 = load i32, ptr %12, align 4, !tbaa !5
  %107 = sext i32 %106 to i64
  call void @llvm.memmove.p0.p0.i64(ptr align 1 %103, ptr align 1 %105, i64 %107, i1 false)
  call void @llvm.lifetime.start.p0(i64 8, ptr %13) #13
  %108 = load ptr, ptr %4, align 8, !tbaa !11
  %109 = load i32, ptr %108, align 4
  %110 = lshr i32 %109, 3
  %111 = add nsw i32 %110, 4
  %112 = sext i32 %111 to i64
  %113 = urem i64 %112, 8
  %114 = icmp eq i64 %113, 1
  %115 = select i1 %114, i64 8, i64 0
  store i64 %115, ptr %13, align 8, !tbaa !9
  %116 = load i64, ptr %13, align 8, !tbaa !9
  %117 = icmp ne i64 %116, 0
  br i1 %117, label %118, label %132

118:                                              ; preds = %88
  %119 = load ptr, ptr %7, align 8, !tbaa !18
  %120 = load i64, ptr %13, align 8, !tbaa !9
  %121 = sub i64 0, %120
  %122 = getelementptr inbounds i8, ptr %119, i64 %121
  %123 = load ptr, ptr %7, align 8, !tbaa !18
  %124 = load ptr, ptr %4, align 8, !tbaa !11
  %125 = load i32, ptr %124, align 4
  %126 = lshr i32 %125, 3
  %127 = load i32, ptr %12, align 4, !tbaa !5
  %128 = sub nsw i32 %126, %127
  %129 = sub nsw i32 %128, 1
  %130 = sext i32 %129 to i64
  %131 = mul i64 %130, 8
  call void @llvm.memmove.p0.p0.i64(ptr align 1 %122, ptr align 8 %123, i64 %131, i1 false)
  br label %132

132:                                              ; preds = %118, %88
  call void @llvm.lifetime.start.p0(i64 8, ptr %14) #13
  %133 = load ptr, ptr %4, align 8, !tbaa !11
  %134 = load i32, ptr %133, align 4
  %135 = and i32 %134, 1
  %136 = icmp ne i32 %135, 0
  br i1 %136, label %137, label %144

137:                                              ; preds = %132
  %138 = load ptr, ptr %4, align 8, !tbaa !11
  %139 = load i32, ptr %138, align 4
  %140 = lshr i32 %139, 1
  %141 = and i32 %140, 1
  %142 = icmp ne i32 %141, 0
  %143 = xor i1 %142, true
  br label %144

144:                                              ; preds = %137, %132
  %145 = phi i1 [ false, %132 ], [ %143, %137 ]
  %146 = select i1 %145, i64 8, i64 0
  store i64 %146, ptr %14, align 8, !tbaa !9
  %147 = load ptr, ptr %8, align 8, !tbaa !18
  %148 = load i64, ptr %13, align 8, !tbaa !9
  %149 = sub i64 0, %148
  %150 = getelementptr inbounds i8, ptr %147, i64 %149
  %151 = load ptr, ptr %8, align 8, !tbaa !18
  %152 = getelementptr inbounds ptr, ptr %151, i64 1
  %153 = load i32, ptr %12, align 4, !tbaa !5
  %154 = sext i32 %153 to i64
  %155 = mul i64 %154, 8
  %156 = load i64, ptr %14, align 8, !tbaa !9
  %157 = add i64 %155, %156
  call void @llvm.memmove.p0.p0.i64(ptr align 1 %150, ptr align 8 %152, i64 %157, i1 false)
  %158 = load ptr, ptr %4, align 8, !tbaa !11
  %159 = load i32, ptr %158, align 4
  %160 = lshr i32 %159, 3
  %161 = add i32 %160, -1
  %162 = load i32, ptr %158, align 4
  %163 = and i32 %161, 536870911
  %164 = shl i32 %163, 3
  %165 = and i32 %162, 7
  %166 = or i32 %165, %164
  store i32 %166, ptr %158, align 4
  call void @llvm.lifetime.start.p0(i64 8, ptr %15) #13
  %167 = load ptr, ptr %4, align 8, !tbaa !11
  %168 = load ptr, ptr %4, align 8, !tbaa !11
  %169 = load i32, ptr %168, align 4
  %170 = lshr i32 %169, 3
  %171 = zext i32 %170 to i64
  %172 = add i64 4, %171
  %173 = load ptr, ptr %4, align 8, !tbaa !11
  %174 = load i32, ptr %173, align 4
  %175 = lshr i32 %174, 3
  %176 = add nsw i32 %175, 4
  %177 = sext i32 %176 to i64
  %178 = urem i64 %177, 8
  %179 = sub i64 8, %178
  %180 = and i64 %179, 7
  %181 = add i64 %172, %180
  %182 = load ptr, ptr %4, align 8, !tbaa !11
  %183 = load i32, ptr %182, align 4
  %184 = lshr i32 %183, 2
  %185 = and i32 %184, 1
  %186 = icmp ne i32 %185, 0
  br i1 %186, label %187, label %188

187:                                              ; preds = %144
  br label %194

188:                                              ; preds = %144
  %189 = load ptr, ptr %4, align 8, !tbaa !11
  %190 = load i32, ptr %189, align 4
  %191 = lshr i32 %190, 3
  %192 = zext i32 %191 to i64
  %193 = mul i64 8, %192
  br label %194

194:                                              ; preds = %188, %187
  %195 = phi i64 [ 8, %187 ], [ %193, %188 ]
  %196 = add i64 %181, %195
  %197 = load ptr, ptr %4, align 8, !tbaa !11
  %198 = load i32, ptr %197, align 4
  %199 = and i32 %198, 1
  %200 = icmp ne i32 %199, 0
  br i1 %200, label %201, label %208

201:                                              ; preds = %194
  %202 = load ptr, ptr %4, align 8, !tbaa !11
  %203 = load i32, ptr %202, align 4
  %204 = lshr i32 %203, 1
  %205 = and i32 %204, 1
  %206 = icmp ne i32 %205, 0
  %207 = xor i1 %206, true
  br label %208

208:                                              ; preds = %201, %194
  %209 = phi i1 [ false, %194 ], [ %207, %201 ]
  %210 = zext i1 %209 to i32
  %211 = sext i32 %210 to i64
  %212 = mul i64 %211, 8
  %213 = add i64 %196, %212
  %214 = call ptr @zrealloc(ptr noundef %167, i64 noundef %213) #15
  store ptr %214, ptr %15, align 8, !tbaa !11
  %215 = load ptr, ptr %15, align 8, !tbaa !11
  %216 = icmp ne ptr %215, null
  br i1 %216, label %217, label %218

217:                                              ; preds = %208
  br label %218

218:                                              ; preds = %217, %208
  %219 = load ptr, ptr %15, align 8, !tbaa !11
  %220 = icmp ne ptr %219, null
  br i1 %220, label %221, label %223

221:                                              ; preds = %218
  %222 = load ptr, ptr %15, align 8, !tbaa !11
  br label %225

223:                                              ; preds = %218
  %224 = load ptr, ptr %4, align 8, !tbaa !11
  br label %225

225:                                              ; preds = %223, %221
  %226 = phi ptr [ %222, %221 ], [ %224, %223 ]
  store ptr %226, ptr %3, align 8
  store i32 1, ptr %11, align 4
  call void @llvm.lifetime.end.p0(i64 8, ptr %15) #13
  call void @llvm.lifetime.end.p0(i64 8, ptr %14) #13
  call void @llvm.lifetime.end.p0(i64 8, ptr %13) #13
  call void @llvm.lifetime.end.p0(i64 4, ptr %12) #13
  call void @llvm.lifetime.end.p0(i64 8, ptr %9) #13
  call void @llvm.lifetime.end.p0(i64 8, ptr %8) #13
  call void @llvm.lifetime.end.p0(i64 8, ptr %7) #13
  br label %227

227:                                              ; preds = %225, %49
  %228 = load ptr, ptr %3, align 8
  ret ptr %228

229:                                              ; preds = %85
  unreachable
}