; Function Attrs: nounwind uwtable
define dso_local ptr @raxRemoveChild(ptr noundef %0, ptr noundef readnone captures(address) %1) local_unnamed_addr #1 {
  %3 = load i32, ptr %0, align 4
  %4 = and i32 %3, 4
  %.not = icmp eq i32 %4, 0
  br i1 %.not, label %21, label %5

5:                                                ; preds = %2
  %6 = and i32 %3, 1
  %.not68 = icmp eq i32 %6, 0
  br i1 %.not68, label %raxGetData.exit, label %7

7:                                                ; preds = %5
  %8 = and i32 %3, 2
  %.not.i = icmp eq i32 %8, 0
  br i1 %.not.i, label %9, label %raxSetData.exit

raxGetData.exit:                                  ; preds = %5
  store i32 0, ptr %0, align 4
  br label %84

9:                                                ; preds = %7
  %10 = lshr i32 %3, 3
  %11 = zext nneg i32 %10 to i64
  %12 = xor i32 %10, 3
  %.neg.i = add nuw nsw i32 %12, 1
  %13 = and i32 %.neg.i, 7
  %14 = zext nneg i32 %13 to i64
  %15 = getelementptr inbounds nuw i8, ptr %0, i64 %11
  %16 = getelementptr inbounds nuw i8, ptr %15, i64 4
  %17 = getelementptr inbounds nuw i8, ptr %16, i64 %14
  %18 = getelementptr inbounds nuw i8, ptr %17, i64 8
  %.0.copyload.i = load ptr, ptr %18, align 8
  %.not.i70 = icmp eq ptr %.0.copyload.i, null
  br i1 %.not.i70, label %raxSetData.exit, label %19

19:                                               ; preds = %9
  %20 = getelementptr inbounds nuw i8, ptr %0, i64 8
  store ptr %.0.copyload.i, ptr %20, align 8
  br label %raxSetData.exit

raxSetData.exit:                                  ; preds = %7, %9, %19
  %.sink.i = phi i32 [ 1, %19 ], [ 3, %9 ], [ 3, %7 ]
  store i32 %.sink.i, ptr %0, align 4
  br label %84

21:                                               ; preds = %2
  %22 = getelementptr inbounds nuw i8, ptr %0, i64 4
  %23 = lshr i32 %3, 3
  %24 = zext nneg i32 %23 to i64
  %25 = getelementptr inbounds nuw i8, ptr %22, i64 %24
  %26 = xor i32 %23, 3
  %.neg = add nuw nsw i32 %26, 1
  %27 = and i32 %.neg, 7
  %28 = zext nneg i32 %27 to i64
  %29 = getelementptr inbounds nuw i8, ptr %25, i64 %28
  br label %30

30:                                               ; preds = %30, %21
  %.055 = phi ptr [ %22, %21 ], [ %33, %30 ]
  %.054 = phi ptr [ %29, %21 ], [ %32, %30 ]
  %.0.copyload = load ptr, ptr %.054, align 8
  %31 = icmp eq ptr %.0.copyload, %1
  %32 = getelementptr inbounds nuw i8, ptr %.054, i64 8
  %33 = getelementptr inbounds nuw i8, ptr %.055, i64 1
  br i1 %31, label %34, label %30

34:                                               ; preds = %30
  %35 = ptrtoint ptr %.055 to i64
  %36 = ptrtoint ptr %22 to i64
  %.neg58 = sub i64 %36, %35
  %37 = trunc i64 %.neg58 to i32
  %38 = add i32 %23, %37
  %39 = add i32 %38, -1
  %40 = sext i32 %39 to i64
  tail call void @llvm.memmove.p0.p0.i64(ptr nonnull align 1 %.055, ptr nonnull align 1 %33, i64 %40, i1 false)
  %41 = load i32, ptr %0, align 4
  %42 = and i32 %41, 56
  %43 = icmp eq i32 %42, 40
  %.neg62 = select i1 %43, i64 -8, i64 0
  br i1 %43, label %44, label %50

44:                                               ; preds = %34
  %45 = lshr i32 %41, 3
  %46 = getelementptr inbounds i8, ptr %29, i64 -8
  %47 = sub i32 %45, %38
  %48 = sext i32 %47 to i64
  %49 = shl nsw i64 %48, 3
  tail call void @llvm.memmove.p0.p0.i64(ptr nonnull align 1 %46, ptr nonnull align 8 %29, i64 %49, i1 false)
  %.pre = load i32, ptr %0, align 4
  br label %50

50:                                               ; preds = %44, %34
  %51 = phi i32 [ %.pre, %44 ], [ %41, %34 ]
  %52 = and i32 %51, 1
  %.not60 = icmp eq i32 %52, 0
  %53 = shl i32 %51, 2
  %54 = and i32 %53, 8
  %55 = xor i32 %54, 8
  %narrow = select i1 %.not60, i32 0, i32 %55
  %56 = zext nneg i32 %narrow to i64
  %57 = getelementptr inbounds i8, ptr %.054, i64 %.neg62
  %58 = shl nsw i64 %40, 3
  %59 = add nsw i64 %58, %56
  tail call void @llvm.memmove.p0.p0.i64(ptr nonnull align 1 %57, ptr nonnull align 8 %32, i64 %59, i1 false)
  %60 = load i32, ptr %0, align 4
  %61 = and i32 %60, -8
  %62 = add i32 %61, -8
  %63 = and i32 %60, 7
  %64 = or disjoint i32 %62, %63
  store i32 %64, ptr %0, align 4
  %65 = lshr exact i32 %62, 3
  %66 = zext nneg i32 %65 to i64
  %67 = add nuw nsw i64 %66, 4
  %68 = xor i32 %65, 3
  %.neg63 = add nuw nsw i32 %68, 1
  %69 = and i32 %.neg63, 7
  %70 = zext nneg i32 %69 to i64
  %71 = and i32 %60, 4
  %.not64 = icmp eq i32 %71, 0
  %72 = shl nuw nsw i64 %66, 3
  %73 = select i1 %.not64, i64 %72, i64 8
  %74 = and i32 %60, 1
  %.not65 = icmp eq i32 %74, 0
  %75 = shl nuw nsw i32 %63, 2
  %76 = and i32 %75, 8
  %77 = xor i32 %76, 8
  %narrow77 = select i1 %.not65, i32 0, i32 %77
  %78 = zext nneg i32 %narrow77 to i64
  %79 = add nuw nsw i64 %67, %73
  %80 = add nuw nsw i64 %79, %78
  %81 = add nuw nsw i64 %80, %70
  %82 = tail call ptr @zrealloc(ptr noundef nonnull %0, i64 noundef %81) #27
  %.not67 = icmp eq ptr %82, null
  %83 = select i1 %.not67, ptr %0, ptr %82
  br label %84

84:                                               ; preds = %raxGetData.exit, %raxSetData.exit, %50
  %.0 = phi ptr [ %83, %50 ], [ %0, %raxSetData.exit ], [ %0, %raxGetData.exit ]
  ret ptr %.0
}